Certificate:
    Data:
        Version: 3 (0x2)
        Serial Number: 1 (0x1)
        Signature Algorithm: sha1WithRSAEncryption
        Issuer: DC=org, DC=simple, O=Simple Inc, OU=Simple Signing CA, CN=Simple Signing CA
        Validity
            Not Before: Nov 27 23:27:29 2023 GMT
            Not After : Nov 26 23:27:29 2025 GMT
        Subject: DC=org, DC=simple, O=Simple Inc, CN=Mai Tran
        Subject Public Key Info:
            Public Key Algorithm: rsaEncryption
                RSA Public-Key: (2048 bit)
                Modulus:
                    00:e5:77:06:01:97:df:07:38:55:00:ce:4c:ba:35:
                    ef:d0:17:d5:17:56:82:76:03:a8:5a:d6:f5:c3:de:
                    48:80:95:e4:ec:89:f2:36:dc:54:33:f6:58:8f:99:
                    46:63:79:d1:de:87:76:57:0f:54:a3:3c:b5:14:78:
                    25:03:a9:e6:52:94:06:d4:3b:a6:e3:ca:e9:41:f9:
                    ac:93:5f:5b:e4:1b:02:33:cb:61:02:53:35:b2:2a:
                    a3:58:44:21:d9:9c:ae:bb:21:2c:3b:dc:5f:81:8a:
                    9d:53:dd:e1:dc:62:b6:2f:e1:2b:9c:93:d3:ca:ca:
                    e2:5d:27:b6:9d:28:8a:4e:96:4b:42:d2:69:fd:ac:
                    01:45:61:f1:7a:fa:58:f6:1e:c9:fd:d0:bf:3e:66:
                    f1:74:c6:8c:04:13:a6:04:d2:56:23:1b:37:bc:4d:
                    34:e2:df:0d:49:e2:06:1a:e3:20:b8:07:db:c5:1e:
                    f2:d9:5d:8b:a4:2d:1e:05:8f:8f:93:1c:8a:8b:73:
                    3b:12:32:2f:5f:8f:9f:b1:bf:3c:8c:96:b9:db:a4:
                    b5:e7:66:2f:e4:8c:c6:e0:fd:af:81:c5:80:a0:26:
                    68:56:a8:db:6b:bf:ec:de:31:c7:e4:8e:f0:49:d9:
                    c0:b0:89:3d:2c:1a:42:31:e7:02:4c:2c:f5:a5:cb:
                    d7:ff
                Exponent: 65537 (0x10001)
        X509v3 extensions:
            X509v3 Key Usage: critical
                Digital Signature, Key Encipherment
            X509v3 Basic Constraints: 
                CA:FALSE
            X509v3 Extended Key Usage: 
                E-mail Protection, TLS Web Client Authentication
            X509v3 Subject Key Identifier: 
                BB:BE:CD:5E:94:51:DB:AC:C9:FE:27:A1:52:6B:9B:E6:3A:32:4D:A7
            X509v3 Authority Key Identifier: 
                keyid:CB:C6:D4:43:52:4D:A2:4C:C0:57:98:D4:F7:D8:5D:27:3F:E5:21:74

            X509v3 Subject Alternative Name: 
                email:maitran@simple.org
    Signature Algorithm: sha1WithRSAEncryption
         41:e6:9f:cd:d2:5b:10:7c:63:2f:98:e5:4c:d0:6b:27:1f:0f:
         ea:cc:f0:d0:5f:2c:25:c0:1d:77:1c:d9:e2:39:36:6d:3f:b9:
         f5:18:27:30:9f:f7:cc:13:59:c4:6b:05:54:0e:7f:6d:fa:8d:
         2d:0d:d2:cf:53:44:45:ff:1e:9c:de:8b:ef:13:8c:58:bf:22:
         16:de:77:72:4f:a5:3e:61:e6:1b:80:bd:cc:a4:18:a3:31:cf:
         4d:8f:5e:a9:86:9a:e9:06:5d:43:48:9b:1a:ca:b0:f2:be:79:
         f4:13:a7:73:3b:ae:0d:52:eb:29:97:1a:87:71:69:d0:fa:ad:
         68:2a:1b:89:3b:6b:ad:ab:7d:9f:07:27:96:81:ef:4f:6d:48:
         1c:fa:a4:ad:1a:92:77:0a:f3:84:a6:75:bd:56:63:95:bc:f4:
         07:f4:63:40:7c:e0:28:97:e5:4c:d4:87:00:8f:e6:d1:46:02:
         57:28:8a:b2:cf:f2:7c:e5:98:d0:d1:05:ff:37:52:7f:4f:77:
         30:b3:71:9f:61:e2:92:6a:51:1f:19:49:81:3c:67:ad:72:ac:
         06:bb:1e:08:8d:ee:dc:cc:bf:9a:b3:83:ff:44:d6:c4:1d:a5:
         f8:c0:5f:e5:ab:02:8b:0a:39:c6:65:43:0b:d7:4d:29:85:f9:
         3b:06:88:aa
-----BEGIN CERTIFICATE-----
MIID5zCCAs+gAwIBAgIBATANBgkqhkiG9w0BAQUFADB6MRMwEQYKCZImiZPyLGQB
GRYDb3JnMRYwFAYKCZImiZPyLGQBGRYGc2ltcGxlMRMwEQYDVQQKDApTaW1wbGUg
SW5jMRowGAYDVQQLDBFTaW1wbGUgU2lnbmluZyBDQTEaMBgGA1UEAwwRU2ltcGxl
IFNpZ25pbmcgQ0EwHhcNMjMxMTI3MjMyNzI5WhcNMjUxMTI2MjMyNzI5WjBVMRMw
EQYKCZImiZPyLGQBGRYDb3JnMRYwFAYKCZImiZPyLGQBGRYGc2ltcGxlMRMwEQYD
VQQKDApTaW1wbGUgSW5jMREwDwYDVQQDDAhNYWkgVHJhbjCCASIwDQYJKoZIhvcN
AQEBBQADggEPADCCAQoCggEBAOV3BgGX3wc4VQDOTLo179AX1RdWgnYDqFrW9cPe
SICV5OyJ8jbcVDP2WI+ZRmN50d6HdlcPVKM8tRR4JQOp5lKUBtQ7puPK6UH5rJNf
W+QbAjPLYQJTNbIqo1hEIdmcrrshLDvcX4GKnVPd4dxiti/hK5yT08rK4l0ntp0o
ik6WS0LSaf2sAUVh8Xr6WPYeyf3Qvz5m8XTGjAQTpgTSViMbN7xNNOLfDUniBhrj
ILgH28Ue8tldi6QtHgWPj5MciotzOxIyL1+Pn7G/PIyWuduktedmL+SMxuD9r4HF
gKAmaFao22u/7N4xx+SO8EnZwLCJPSwaQjHnAkws9aXL1/8CAwEAAaOBnDCBmTAO
BgNVHQ8BAf8EBAMCBaAwCQYDVR0TBAIwADAdBgNVHSUEFjAUBggrBgEFBQcDBAYI
KwYBBQUHAwIwHQYDVR0OBBYEFLu+zV6UUdusyf4noVJrm+Y6Mk2nMB8GA1UdIwQY
MBaAFMvG1ENSTaJMwFeY1PfYXSc/5SF0MB0GA1UdEQQWMBSBEm1haXRyYW5Ac2lt
cGxlLm9yZzANBgkqhkiG9w0BAQUFAAOCAQEAQeafzdJbEHxjL5jlTNBrJx8P6szw
0F8sJcAddxzZ4jk2bT+59RgnMJ/3zBNZxGsFVA5/bfqNLQ3Sz1NERf8enN6L7xOM
WL8iFt53ck+lPmHmG4C9zKQYozHPTY9eqYaa6QZdQ0ibGsqw8r559BOnczuuDVLr
KZcah3Fp0PqtaCobiTtrrat9nwcnloHvT21IHPqkrRqSdwrzhKZ1vVZjlbz0B/Rj
QHzgKJflTNSHAI/m0UYCVyiKss/yfOWY0NEF/zdSf093MLNxn2HikmpRHxlJgTxn
rXKsBrseCI3u3My/mrOD/0TWxB2l+MBf5asCiwo5xmVDC9dNKYX5OwaIqg==
-----END CERTIFICATE-----
