Certificate:
    Data:
        Version: 3 (0x2)
        Serial Number: 2 (0x2)
        Signature Algorithm: sha1WithRSAEncryption
        Issuer: DC=org, DC=simple, O=Simple Inc, OU=Simple Signing CA, CN=Simple Signing CA
        Validity
            Not Before: Nov 27 23:29:18 2023 GMT
            Not After : Nov 26 23:29:18 2025 GMT
        Subject: DC=org, DC=simple, O=Simple Inc, CN=www.simple.org
        Subject Public Key Info:
            Public Key Algorithm: rsaEncryption
                RSA Public-Key: (2048 bit)
                Modulus:
                    00:ce:a7:3d:62:38:5a:64:0a:1f:66:3f:e9:14:64:
                    fc:8e:4a:99:1c:1c:e0:82:73:a9:77:1d:dd:c6:d8:
                    c2:72:70:fb:92:df:2c:e4:27:b0:84:1e:c9:5e:72:
                    4c:33:b2:87:e0:b7:e9:bd:3b:52:fc:20:22:37:e3:
                    da:85:8c:27:1f:4b:2f:85:60:9c:05:d0:a6:c6:d8:
                    72:70:4c:4b:db:da:ed:55:2b:ab:2f:74:d9:fd:2b:
                    32:37:52:a1:87:0e:0a:e9:b7:b0:67:38:db:87:fe:
                    fe:51:ef:ca:9a:73:8a:59:ac:d0:af:1a:2b:f2:a1:
                    44:16:74:6c:83:bb:b5:79:54:01:bc:df:df:9d:d1:
                    a4:55:e2:75:69:db:b9:2f:d3:27:21:94:0a:13:5a:
                    ba:94:f9:1a:ff:a8:6d:1b:9f:91:65:65:c7:47:04:
                    df:03:1f:69:3a:e5:e3:9b:d8:29:f0:7d:33:b3:07:
                    82:f0:15:68:b0:2e:98:e6:d3:00:0d:15:95:80:d3:
                    df:92:ce:63:85:a7:41:2d:36:8e:85:5d:90:d9:c2:
                    00:0b:95:32:5b:05:28:0a:fa:3f:6b:72:ef:22:03:
                    97:43:b3:fc:4a:ee:e8:38:10:0e:58:e5:7e:1b:1c:
                    a7:67:69:b0:36:26:89:87:ae:9a:8e:75:d5:9f:56:
                    e1:f5
                Exponent: 65537 (0x10001)
        X509v3 extensions:
            X509v3 Key Usage: critical
                Digital Signature, Key Encipherment
            X509v3 Basic Constraints: 
                CA:FALSE
            X509v3 Extended Key Usage: 
                TLS Web Server Authentication, TLS Web Client Authentication
            X509v3 Subject Key Identifier: 
                EC:78:C5:47:BD:CB:7A:81:1D:20:27:A3:B3:94:AF:AB:49:DF:C9:79
            X509v3 Authority Key Identifier: 
                keyid:CB:C6:D4:43:52:4D:A2:4C:C0:57:98:D4:F7:D8:5D:27:3F:E5:21:74

            X509v3 Subject Alternative Name: 
                DNS:www.simple.org
    Signature Algorithm: sha1WithRSAEncryption
         ab:ea:97:b6:b7:9d:42:fd:c1:42:05:4f:e3:d1:4b:1e:52:34:
         0b:b1:02:a4:87:de:ee:45:19:e6:20:63:8a:04:25:cd:56:c9:
         da:2e:2e:e0:b0:de:93:30:85:cb:8d:ea:c6:78:79:88:36:29:
         2b:1d:4b:ea:cc:e6:8f:ab:c8:af:fe:36:6c:db:72:db:40:d1:
         eb:91:9d:ca:c1:5c:e3:97:c8:10:0c:49:27:11:20:8a:4b:5f:
         56:c3:14:88:f3:4e:d0:9f:6a:b3:b6:46:94:fe:86:cc:c6:cc:
         a0:58:79:ee:f7:8c:ad:1b:79:bf:5c:de:48:8f:9b:0e:f6:dc:
         23:fe:3d:1b:60:c2:e8:85:4c:32:34:b1:a4:7f:93:c6:2f:c1:
         e8:e9:c8:37:33:69:37:e8:ed:99:5b:14:44:f5:50:61:47:f1:
         c1:eb:a0:63:3a:e9:26:01:3b:af:3a:61:98:5f:bb:13:72:20:
         d6:ea:d5:b3:e8:cd:96:af:ba:ec:e8:ae:4b:4f:f4:22:2b:58:
         b8:e3:91:e8:9e:b6:e7:5d:2f:6b:27:33:61:08:c4:91:b3:5c:
         14:7f:29:fd:2f:02:9e:05:58:95:93:de:e8:2d:5f:8c:70:5f:
         b4:15:45:87:a1:3e:fd:f8:d2:c9:1b:90:f4:73:d0:6e:c3:b1:
         1b:49:f3:f2
-----BEGIN CERTIFICATE-----
MIID6TCCAtGgAwIBAgIBAjANBgkqhkiG9w0BAQUFADB6MRMwEQYKCZImiZPyLGQB
GRYDb3JnMRYwFAYKCZImiZPyLGQBGRYGc2ltcGxlMRMwEQYDVQQKDApTaW1wbGUg
SW5jMRowGAYDVQQLDBFTaW1wbGUgU2lnbmluZyBDQTEaMBgGA1UEAwwRU2ltcGxl
IFNpZ25pbmcgQ0EwHhcNMjMxMTI3MjMyOTE4WhcNMjUxMTI2MjMyOTE4WjBbMRMw
EQYKCZImiZPyLGQBGRYDb3JnMRYwFAYKCZImiZPyLGQBGRYGc2ltcGxlMRMwEQYD
VQQKDApTaW1wbGUgSW5jMRcwFQYDVQQDDA53d3cuc2ltcGxlLm9yZzCCASIwDQYJ
KoZIhvcNAQEBBQADggEPADCCAQoCggEBAM6nPWI4WmQKH2Y/6RRk/I5KmRwc4IJz
qXcd3cbYwnJw+5LfLOQnsIQeyV5yTDOyh+C36b07UvwgIjfj2oWMJx9LL4VgnAXQ
psbYcnBMS9va7VUrqy902f0rMjdSoYcOCum3sGc424f+/lHvyppzilms0K8aK/Kh
RBZ0bIO7tXlUAbzf353RpFXidWnbuS/TJyGUChNaupT5Gv+obRufkWVlx0cE3wMf
aTrl45vYKfB9M7MHgvAVaLAumObTAA0VlYDT35LOY4WnQS02joVdkNnCAAuVMlsF
KAr6P2ty7yIDl0Oz/Eru6DgQDljlfhscp2dpsDYmiYeumo511Z9W4fUCAwEAAaOB
mDCBlTAOBgNVHQ8BAf8EBAMCBaAwCQYDVR0TBAIwADAdBgNVHSUEFjAUBggrBgEF
BQcDAQYIKwYBBQUHAwIwHQYDVR0OBBYEFOx4xUe9y3qBHSAno7OUr6tJ38l5MB8G
A1UdIwQYMBaAFMvG1ENSTaJMwFeY1PfYXSc/5SF0MBkGA1UdEQQSMBCCDnd3dy5z
aW1wbGUub3JnMA0GCSqGSIb3DQEBBQUAA4IBAQCr6pe2t51C/cFCBU/j0UseUjQL
sQKkh97uRRnmIGOKBCXNVsnaLi7gsN6TMIXLjerGeHmINikrHUvqzOaPq8iv/jZs
23LbQNHrkZ3KwVzjl8gQDEknESCKS19WwxSI807Qn2qztkaU/obMxsygWHnu94yt
G3m/XN5Ij5sO9twj/j0bYMLohUwyNLGkf5PGL8Ho6cg3M2k36O2ZWxRE9VBhR/HB
66BjOukmATuvOmGYX7sTciDW6tWz6M2Wr7rs6K5LT/QiK1i445HonrbnXS9rJzNh
CMSRs1wUfyn9LwKeBViVk97oLV+McF+0FUWHoT79+NLJG5D0c9Buw7EbSfPy
-----END CERTIFICATE-----
