Certificate:
    Data:
        Version: 3 (0x2)
        Serial Number: 2 (0x2)
        Signature Algorithm: sha1WithRSAEncryption
        Issuer: DC=org, DC=simple, O=Simple Inc, OU=Simple Root CA, CN=Simple Root CA
        Validity
            Not Before: Nov 27 23:20:48 2023 GMT
            Not After : Nov 26 23:20:48 2033 GMT
        Subject: DC=org, DC=simple, O=Simple Inc, OU=Simple Signing CA, CN=Simple Signing CA
        Subject Public Key Info:
            Public Key Algorithm: rsaEncryption
                RSA Public-Key: (2048 bit)
                Modulus:
                    00:c3:a1:23:a2:c0:f5:c2:01:4a:c2:91:88:54:f9:
                    85:c5:76:53:19:68:c2:56:2b:b4:6d:1b:5b:11:74:
                    41:d3:b0:c2:a7:93:0f:66:79:25:90:ba:d3:41:eb:
                    9b:fc:e5:39:de:7a:43:ca:88:4c:c2:16:a6:e3:58:
                    87:6d:97:6c:fc:1f:e7:e5:ff:d1:0d:4b:fd:0b:4f:
                    b2:56:14:0f:40:81:99:e2:f8:6b:22:cb:5b:e6:fc:
                    43:b2:81:7a:d8:4d:bc:46:0d:21:94:6f:95:30:c3:
                    c5:e3:a2:33:f2:aa:76:4c:ef:2d:e2:c8:85:7d:cc:
                    bc:4b:80:0b:6f:08:0f:42:05:a8:e5:7b:c8:c7:9c:
                    a5:f2:9e:24:3d:08:7f:d5:28:99:73:46:69:64:2a:
                    c8:2f:d2:9f:9a:f0:5e:13:7d:50:53:bf:98:9f:df:
                    b1:6c:c6:03:57:39:e9:1c:81:c6:00:85:a0:9c:1f:
                    da:6c:06:dd:18:58:b1:00:d0:e2:20:d9:64:6e:c5:
                    cd:71:9f:a7:e7:d8:39:5b:e3:0e:08:54:52:96:74:
                    f2:96:39:b5:51:a5:e4:bf:9b:0b:56:64:8b:f2:69:
                    84:20:8f:bb:02:ba:59:ed:ad:e8:35:81:9c:4c:f9:
                    9f:a5:25:6a:26:30:93:89:c8:0b:32:60:13:f0:70:
                    a2:97
                Exponent: 65537 (0x10001)
        X509v3 extensions:
            X509v3 Key Usage: critical
                Certificate Sign, CRL Sign
            X509v3 Basic Constraints: critical
                CA:TRUE, pathlen:0
            X509v3 Subject Key Identifier: 
                CB:C6:D4:43:52:4D:A2:4C:C0:57:98:D4:F7:D8:5D:27:3F:E5:21:74
            X509v3 Authority Key Identifier: 
                keyid:E3:99:B3:AA:45:13:66:2C:D6:78:F9:56:29:2E:F4:EC:E1:53:82:3D

    Signature Algorithm: sha1WithRSAEncryption
         2c:b6:d1:f3:01:79:d5:90:5b:34:64:8e:a5:09:31:63:6c:1e:
         fb:9a:7d:50:38:70:61:51:a7:b5:b0:bf:f2:2d:ea:ae:3c:04:
         a5:10:f3:05:5f:93:11:cf:e1:1b:0f:f9:3e:b3:0f:6e:4c:0d:
         b8:8d:a9:23:f3:1d:d1:4f:36:6a:1b:54:09:1d:09:4a:f8:e3:
         2a:f1:86:6e:46:40:0f:49:0f:88:4c:73:a1:a2:22:d4:79:56:
         25:12:66:b4:e5:2f:58:d4:d0:12:d8:f0:af:36:d3:54:04:b5:
         d3:84:3e:3a:89:4d:9e:6a:2e:99:e0:db:4d:7b:68:2f:a6:fe:
         c7:1a:b9:95:90:9c:29:2e:73:c4:21:6a:e2:80:1b:7c:a5:7b:
         e5:b4:2f:40:e0:7b:4b:3c:2d:36:97:73:68:89:b6:3b:99:20:
         23:10:24:02:2f:a8:20:56:a5:f8:34:aa:1e:1b:3c:36:2b:f7:
         6b:f1:68:86:50:1f:4c:85:f5:f1:21:d6:9f:eb:48:61:fa:8c:
         77:b0:8f:ea:75:b0:c6:65:59:09:07:b0:9c:da:c2:29:d2:0d:
         31:07:26:e9:de:26:41:c3:68:07:d1:47:1a:b9:43:f8:17:18:
         31:57:60:31:e3:97:28:c8:a6:a0:00:36:d3:58:7c:90:9b:f6:
         86:76:7d:fc
-----BEGIN CERTIFICATE-----
MIIDzzCCAregAwIBAgIBAjANBgkqhkiG9w0BAQUFADB0MRMwEQYKCZImiZPyLGQB
GRYDb3JnMRYwFAYKCZImiZPyLGQBGRYGc2ltcGxlMRMwEQYDVQQKDApTaW1wbGUg
SW5jMRcwFQYDVQQLDA5TaW1wbGUgUm9vdCBDQTEXMBUGA1UEAwwOU2ltcGxlIFJv
b3QgQ0EwHhcNMjMxMTI3MjMyMDQ4WhcNMzMxMTI2MjMyMDQ4WjB6MRMwEQYKCZIm
iZPyLGQBGRYDb3JnMRYwFAYKCZImiZPyLGQBGRYGc2ltcGxlMRMwEQYDVQQKDApT
aW1wbGUgSW5jMRowGAYDVQQLDBFTaW1wbGUgU2lnbmluZyBDQTEaMBgGA1UEAwwR
U2ltcGxlIFNpZ25pbmcgQ0EwggEiMA0GCSqGSIb3DQEBAQUAA4IBDwAwggEKAoIB
AQDDoSOiwPXCAUrCkYhU+YXFdlMZaMJWK7RtG1sRdEHTsMKnkw9meSWQutNB65v8
5TneekPKiEzCFqbjWIdtl2z8H+fl/9ENS/0LT7JWFA9AgZni+Gsiy1vm/EOygXrY
TbxGDSGUb5Uww8XjojPyqnZM7y3iyIV9zLxLgAtvCA9CBajle8jHnKXyniQ9CH/V
KJlzRmlkKsgv0p+a8F4TfVBTv5if37FsxgNXOekcgcYAhaCcH9psBt0YWLEA0OIg
2WRuxc1xn6fn2Dlb4w4IVFKWdPKWObVRpeS/mwtWZIvyaYQgj7sCulntreg1gZxM
+Z+lJWomMJOJyAsyYBPwcKKXAgMBAAGjZjBkMA4GA1UdDwEB/wQEAwIBBjASBgNV
HRMBAf8ECDAGAQH/AgEAMB0GA1UdDgQWBBTLxtRDUk2iTMBXmNT32F0nP+UhdDAf
BgNVHSMEGDAWgBTjmbOqRRNmLNZ4+VYpLvTs4VOCPTANBgkqhkiG9w0BAQUFAAOC
AQEALLbR8wF51ZBbNGSOpQkxY2we+5p9UDhwYVGntbC/8i3qrjwEpRDzBV+TEc/h
Gw/5PrMPbkwNuI2pI/Md0U82ahtUCR0JSvjjKvGGbkZAD0kPiExzoaIi1HlWJRJm
tOUvWNTQEtjwrzbTVAS104Q+OolNnmoumeDbTXtoL6b+xxq5lZCcKS5zxCFq4oAb
fKV75bQvQOB7SzwtNpdzaIm2O5kgIxAkAi+oIFal+DSqHhs8Niv3a/FohlAfTIX1
8SHWn+tIYfqMd7CP6nWwxmVZCQewnNrCKdINMQcm6d4mQcNoB9FHGrlD+BcYMVdg
MeOXKMimoAA201h8kJv2hnZ9/A==
-----END CERTIFICATE-----
Certificate:
    Data:
        Version: 3 (0x2)
        Serial Number: 1 (0x1)
        Signature Algorithm: sha1WithRSAEncryption
        Issuer: DC=org, DC=simple, O=Simple Inc, OU=Simple Root CA, CN=Simple Root CA
        Validity
            Not Before: Nov 27 23:19:22 2023 GMT
            Not After : Nov 26 23:19:22 2033 GMT
        Subject: DC=org, DC=simple, O=Simple Inc, OU=Simple Root CA, CN=Simple Root CA
        Subject Public Key Info:
            Public Key Algorithm: rsaEncryption
                RSA Public-Key: (2048 bit)
                Modulus:
                    00:b6:7a:70:94:4e:5a:6f:08:4b:4c:26:21:7f:83:
                    b6:4f:53:f9:ec:3c:49:74:eb:19:12:97:58:49:2b:
                    68:08:7f:ab:f5:91:5c:ae:d0:e4:b7:e3:81:c9:c9:
                    87:6d:83:25:dc:b1:21:b5:a9:e2:bc:9a:2c:70:08:
                    a7:9d:11:a8:e0:2a:38:b4:4f:54:de:cd:96:f9:bf:
                    82:93:38:7a:25:81:93:49:94:9f:e6:ba:d5:99:10:
                    37:81:7e:d2:14:01:be:7d:4a:b7:25:6c:46:73:2d:
                    fc:23:23:ee:e9:bb:9f:e9:0c:46:65:d0:f5:f6:ef:
                    d8:e7:d0:fb:05:2f:5f:2c:06:c2:ab:b4:c6:48:2d:
                    bd:32:ce:2f:40:8a:1e:49:6f:fb:f3:cc:b1:19:36:
                    2d:57:df:d5:81:65:23:3e:62:83:ef:1b:1a:6a:f9:
                    3a:35:e0:cf:19:3d:ba:5e:63:c8:bb:9b:07:e2:38:
                    f1:9a:11:b2:64:66:f2:f9:11:41:e6:c2:45:72:d6:
                    2e:21:4e:7c:5e:6f:21:5b:43:41:cb:5b:b5:c7:3e:
                    4f:f1:e0:10:6b:91:46:aa:55:82:35:6e:4d:b0:2a:
                    b6:2c:4e:39:70:44:75:e7:8a:44:0e:c2:67:44:8f:
                    1a:d7:78:06:3e:53:75:18:3e:16:78:78:81:93:d8:
                    d2:9b
                Exponent: 65537 (0x10001)
        X509v3 extensions:
            X509v3 Key Usage: critical
                Certificate Sign, CRL Sign
            X509v3 Basic Constraints: critical
                CA:TRUE
            X509v3 Subject Key Identifier: 
                E3:99:B3:AA:45:13:66:2C:D6:78:F9:56:29:2E:F4:EC:E1:53:82:3D
            X509v3 Authority Key Identifier: 
                keyid:E3:99:B3:AA:45:13:66:2C:D6:78:F9:56:29:2E:F4:EC:E1:53:82:3D

    Signature Algorithm: sha1WithRSAEncryption
         12:df:eb:ab:37:aa:38:1c:11:bb:37:3b:7b:f7:06:5c:99:80:
         2e:a6:a8:46:a3:dd:8c:7b:51:96:cf:ec:49:10:06:0f:c2:98:
         4a:48:f8:44:7e:6c:eb:48:41:10:62:6d:e3:c5:64:13:fb:8c:
         f2:a8:7d:5e:d9:0d:b5:56:0f:3f:44:e3:3c:c4:4a:cf:41:20:
         e5:27:86:6a:f6:b6:74:6b:38:b9:49:7d:f9:98:f9:1c:70:35:
         d2:f6:0c:2f:f1:db:5b:3b:88:67:5b:55:9f:f4:29:35:73:07:
         e3:53:7d:eb:c8:b3:be:29:fa:35:80:ca:13:1c:a6:73:0c:8e:
         85:20:3e:64:a2:79:62:a8:d8:43:d2:b4:cf:6b:22:e5:20:d8:
         d1:82:08:4b:9e:80:8c:48:31:69:13:3b:4b:61:17:a9:e4:15:
         79:9f:ca:59:f5:0b:bf:fa:36:26:44:d4:44:20:6b:a7:b1:1f:
         48:1d:58:ca:eb:18:c9:c4:92:9c:42:ce:b1:ab:64:46:4c:b9:
         30:6e:f6:9a:6f:02:56:42:07:c7:b7:e8:c0:59:70:dc:97:58:
         79:bc:0d:f8:e2:37:67:5e:52:2f:7f:98:10:6d:ca:e5:dc:f1:
         c4:1f:ad:8e:30:dc:f2:a9:ee:4c:b5:23:51:a8:9c:61:69:7f:
         30:3d:e4:76
-----BEGIN CERTIFICATE-----
MIIDxjCCAq6gAwIBAgIBATANBgkqhkiG9w0BAQUFADB0MRMwEQYKCZImiZPyLGQB
GRYDb3JnMRYwFAYKCZImiZPyLGQBGRYGc2ltcGxlMRMwEQYDVQQKDApTaW1wbGUg
SW5jMRcwFQYDVQQLDA5TaW1wbGUgUm9vdCBDQTEXMBUGA1UEAwwOU2ltcGxlIFJv
b3QgQ0EwHhcNMjMxMTI3MjMxOTIyWhcNMzMxMTI2MjMxOTIyWjB0MRMwEQYKCZIm
iZPyLGQBGRYDb3JnMRYwFAYKCZImiZPyLGQBGRYGc2ltcGxlMRMwEQYDVQQKDApT
aW1wbGUgSW5jMRcwFQYDVQQLDA5TaW1wbGUgUm9vdCBDQTEXMBUGA1UEAwwOU2lt
cGxlIFJvb3QgQ0EwggEiMA0GCSqGSIb3DQEBAQUAA4IBDwAwggEKAoIBAQC2enCU
TlpvCEtMJiF/g7ZPU/nsPEl06xkSl1hJK2gIf6v1kVyu0OS344HJyYdtgyXcsSG1
qeK8mixwCKedEajgKji0T1TezZb5v4KTOHolgZNJlJ/mutWZEDeBftIUAb59Srcl
bEZzLfwjI+7pu5/pDEZl0PX279jn0PsFL18sBsKrtMZILb0yzi9Aih5Jb/vzzLEZ
Ni1X39WBZSM+YoPvGxpq+To14M8ZPbpeY8i7mwfiOPGaEbJkZvL5EUHmwkVy1i4h
TnxebyFbQ0HLW7XHPk/x4BBrkUaqVYI1bk2wKrYsTjlwRHXnikQOwmdEjxrXeAY+
U3UYPhZ4eIGT2NKbAgMBAAGjYzBhMA4GA1UdDwEB/wQEAwIBBjAPBgNVHRMBAf8E
BTADAQH/MB0GA1UdDgQWBBTjmbOqRRNmLNZ4+VYpLvTs4VOCPTAfBgNVHSMEGDAW
gBTjmbOqRRNmLNZ4+VYpLvTs4VOCPTANBgkqhkiG9w0BAQUFAAOCAQEAEt/rqzeq
OBwRuzc7e/cGXJmALqaoRqPdjHtRls/sSRAGD8KYSkj4RH5s60hBEGJt48VkE/uM
8qh9XtkNtVYPP0TjPMRKz0Eg5SeGava2dGs4uUl9+Zj5HHA10vYML/HbWzuIZ1tV
n/QpNXMH41N968izvin6NYDKExymcwyOhSA+ZKJ5YqjYQ9K0z2si5SDY0YIIS56A
jEgxaRM7S2EXqeQVeZ/KWfULv/o2JkTURCBrp7EfSB1YyusYycSSnELOsatkRky5
MG72mm8CVkIHx7fowFlw3JdYebwN+OI3Z15SL3+YEG3K5dzxxB+tjjDc8qnuTLUj
UaicYWl/MD3kdg==
-----END CERTIFICATE-----
