Certificate:
    Data:
        Version: 3 (0x2)
        Serial Number: 2 (0x2)
        Signature Algorithm: sha1WithRSAEncryption
        Issuer: DC=org, DC=simple, O=Simple Inc, OU=Simple Root CA, CN=Simple Root CA
        Validity
            Not Before: Nov 27 23:20:48 2023 GMT
            Not After : Nov 26 23:20:48 2033 GMT
        Subject: DC=org, DC=simple, O=Simple Inc, OU=Simple Signing CA, CN=Simple Signing CA
        Subject Public Key Info:
            Public Key Algorithm: rsaEncryption
                RSA Public-Key: (2048 bit)
                Modulus:
                    00:c3:a1:23:a2:c0:f5:c2:01:4a:c2:91:88:54:f9:
                    85:c5:76:53:19:68:c2:56:2b:b4:6d:1b:5b:11:74:
                    41:d3:b0:c2:a7:93:0f:66:79:25:90:ba:d3:41:eb:
                    9b:fc:e5:39:de:7a:43:ca:88:4c:c2:16:a6:e3:58:
                    87:6d:97:6c:fc:1f:e7:e5:ff:d1:0d:4b:fd:0b:4f:
                    b2:56:14:0f:40:81:99:e2:f8:6b:22:cb:5b:e6:fc:
                    43:b2:81:7a:d8:4d:bc:46:0d:21:94:6f:95:30:c3:
                    c5:e3:a2:33:f2:aa:76:4c:ef:2d:e2:c8:85:7d:cc:
                    bc:4b:80:0b:6f:08:0f:42:05:a8:e5:7b:c8:c7:9c:
                    a5:f2:9e:24:3d:08:7f:d5:28:99:73:46:69:64:2a:
                    c8:2f:d2:9f:9a:f0:5e:13:7d:50:53:bf:98:9f:df:
                    b1:6c:c6:03:57:39:e9:1c:81:c6:00:85:a0:9c:1f:
                    da:6c:06:dd:18:58:b1:00:d0:e2:20:d9:64:6e:c5:
                    cd:71:9f:a7:e7:d8:39:5b:e3:0e:08:54:52:96:74:
                    f2:96:39:b5:51:a5:e4:bf:9b:0b:56:64:8b:f2:69:
                    84:20:8f:bb:02:ba:59:ed:ad:e8:35:81:9c:4c:f9:
                    9f:a5:25:6a:26:30:93:89:c8:0b:32:60:13:f0:70:
                    a2:97
                Exponent: 65537 (0x10001)
        X509v3 extensions:
            X509v3 Key Usage: critical
                Certificate Sign, CRL Sign
            X509v3 Basic Constraints: critical
                CA:TRUE, pathlen:0
            X509v3 Subject Key Identifier: 
                CB:C6:D4:43:52:4D:A2:4C:C0:57:98:D4:F7:D8:5D:27:3F:E5:21:74
            X509v3 Authority Key Identifier: 
                keyid:E3:99:B3:AA:45:13:66:2C:D6:78:F9:56:29:2E:F4:EC:E1:53:82:3D

    Signature Algorithm: sha1WithRSAEncryption
         2c:b6:d1:f3:01:79:d5:90:5b:34:64:8e:a5:09:31:63:6c:1e:
         fb:9a:7d:50:38:70:61:51:a7:b5:b0:bf:f2:2d:ea:ae:3c:04:
         a5:10:f3:05:5f:93:11:cf:e1:1b:0f:f9:3e:b3:0f:6e:4c:0d:
         b8:8d:a9:23:f3:1d:d1:4f:36:6a:1b:54:09:1d:09:4a:f8:e3:
         2a:f1:86:6e:46:40:0f:49:0f:88:4c:73:a1:a2:22:d4:79:56:
         25:12:66:b4:e5:2f:58:d4:d0:12:d8:f0:af:36:d3:54:04:b5:
         d3:84:3e:3a:89:4d:9e:6a:2e:99:e0:db:4d:7b:68:2f:a6:fe:
         c7:1a:b9:95:90:9c:29:2e:73:c4:21:6a:e2:80:1b:7c:a5:7b:
         e5:b4:2f:40:e0:7b:4b:3c:2d:36:97:73:68:89:b6:3b:99:20:
         23:10:24:02:2f:a8:20:56:a5:f8:34:aa:1e:1b:3c:36:2b:f7:
         6b:f1:68:86:50:1f:4c:85:f5:f1:21:d6:9f:eb:48:61:fa:8c:
         77:b0:8f:ea:75:b0:c6:65:59:09:07:b0:9c:da:c2:29:d2:0d:
         31:07:26:e9:de:26:41:c3:68:07:d1:47:1a:b9:43:f8:17:18:
         31:57:60:31:e3:97:28:c8:a6:a0:00:36:d3:58:7c:90:9b:f6:
         86:76:7d:fc
-----BEGIN CERTIFICATE-----
MIIDzzCCAregAwIBAgIBAjANBgkqhkiG9w0BAQUFADB0MRMwEQYKCZImiZPyLGQB
GRYDb3JnMRYwFAYKCZImiZPyLGQBGRYGc2ltcGxlMRMwEQYDVQQKDApTaW1wbGUg
SW5jMRcwFQYDVQQLDA5TaW1wbGUgUm9vdCBDQTEXMBUGA1UEAwwOU2ltcGxlIFJv
b3QgQ0EwHhcNMjMxMTI3MjMyMDQ4WhcNMzMxMTI2MjMyMDQ4WjB6MRMwEQYKCZIm
iZPyLGQBGRYDb3JnMRYwFAYKCZImiZPyLGQBGRYGc2ltcGxlMRMwEQYDVQQKDApT
aW1wbGUgSW5jMRowGAYDVQQLDBFTaW1wbGUgU2lnbmluZyBDQTEaMBgGA1UEAwwR
U2ltcGxlIFNpZ25pbmcgQ0EwggEiMA0GCSqGSIb3DQEBAQUAA4IBDwAwggEKAoIB
AQDDoSOiwPXCAUrCkYhU+YXFdlMZaMJWK7RtG1sRdEHTsMKnkw9meSWQutNB65v8
5TneekPKiEzCFqbjWIdtl2z8H+fl/9ENS/0LT7JWFA9AgZni+Gsiy1vm/EOygXrY
TbxGDSGUb5Uww8XjojPyqnZM7y3iyIV9zLxLgAtvCA9CBajle8jHnKXyniQ9CH/V
KJlzRmlkKsgv0p+a8F4TfVBTv5if37FsxgNXOekcgcYAhaCcH9psBt0YWLEA0OIg
2WRuxc1xn6fn2Dlb4w4IVFKWdPKWObVRpeS/mwtWZIvyaYQgj7sCulntreg1gZxM
+Z+lJWomMJOJyAsyYBPwcKKXAgMBAAGjZjBkMA4GA1UdDwEB/wQEAwIBBjASBgNV
HRMBAf8ECDAGAQH/AgEAMB0GA1UdDgQWBBTLxtRDUk2iTMBXmNT32F0nP+UhdDAf
BgNVHSMEGDAWgBTjmbOqRRNmLNZ4+VYpLvTs4VOCPTANBgkqhkiG9w0BAQUFAAOC
AQEALLbR8wF51ZBbNGSOpQkxY2we+5p9UDhwYVGntbC/8i3qrjwEpRDzBV+TEc/h
Gw/5PrMPbkwNuI2pI/Md0U82ahtUCR0JSvjjKvGGbkZAD0kPiExzoaIi1HlWJRJm
tOUvWNTQEtjwrzbTVAS104Q+OolNnmoumeDbTXtoL6b+xxq5lZCcKS5zxCFq4oAb
fKV75bQvQOB7SzwtNpdzaIm2O5kgIxAkAi+oIFal+DSqHhs8Niv3a/FohlAfTIX1
8SHWn+tIYfqMd7CP6nWwxmVZCQewnNrCKdINMQcm6d4mQcNoB9FHGrlD+BcYMVdg
MeOXKMimoAA201h8kJv2hnZ9/A==
-----END CERTIFICATE-----
