Certificate:
    Data:
        Version: 3 (0x2)
        Serial Number: 1 (0x1)
        Signature Algorithm: sha1WithRSAEncryption
        Issuer: DC=org, DC=simple, O=Simple Inc, OU=Simple Root CA, CN=Simple Root CA
        Validity
            Not Before: Nov 27 23:19:22 2023 GMT
            Not After : Nov 26 23:19:22 2033 GMT
        Subject: DC=org, DC=simple, O=Simple Inc, OU=Simple Root CA, CN=Simple Root CA
        Subject Public Key Info:
            Public Key Algorithm: rsaEncryption
                RSA Public-Key: (2048 bit)
                Modulus:
                    00:b6:7a:70:94:4e:5a:6f:08:4b:4c:26:21:7f:83:
                    b6:4f:53:f9:ec:3c:49:74:eb:19:12:97:58:49:2b:
                    68:08:7f:ab:f5:91:5c:ae:d0:e4:b7:e3:81:c9:c9:
                    87:6d:83:25:dc:b1:21:b5:a9:e2:bc:9a:2c:70:08:
                    a7:9d:11:a8:e0:2a:38:b4:4f:54:de:cd:96:f9:bf:
                    82:93:38:7a:25:81:93:49:94:9f:e6:ba:d5:99:10:
                    37:81:7e:d2:14:01:be:7d:4a:b7:25:6c:46:73:2d:
                    fc:23:23:ee:e9:bb:9f:e9:0c:46:65:d0:f5:f6:ef:
                    d8:e7:d0:fb:05:2f:5f:2c:06:c2:ab:b4:c6:48:2d:
                    bd:32:ce:2f:40:8a:1e:49:6f:fb:f3:cc:b1:19:36:
                    2d:57:df:d5:81:65:23:3e:62:83:ef:1b:1a:6a:f9:
                    3a:35:e0:cf:19:3d:ba:5e:63:c8:bb:9b:07:e2:38:
                    f1:9a:11:b2:64:66:f2:f9:11:41:e6:c2:45:72:d6:
                    2e:21:4e:7c:5e:6f:21:5b:43:41:cb:5b:b5:c7:3e:
                    4f:f1:e0:10:6b:91:46:aa:55:82:35:6e:4d:b0:2a:
                    b6:2c:4e:39:70:44:75:e7:8a:44:0e:c2:67:44:8f:
                    1a:d7:78:06:3e:53:75:18:3e:16:78:78:81:93:d8:
                    d2:9b
                Exponent: 65537 (0x10001)
        X509v3 extensions:
            X509v3 Key Usage: critical
                Certificate Sign, CRL Sign
            X509v3 Basic Constraints: critical
                CA:TRUE
            X509v3 Subject Key Identifier: 
                E3:99:B3:AA:45:13:66:2C:D6:78:F9:56:29:2E:F4:EC:E1:53:82:3D
            X509v3 Authority Key Identifier: 
                keyid:E3:99:B3:AA:45:13:66:2C:D6:78:F9:56:29:2E:F4:EC:E1:53:82:3D

    Signature Algorithm: sha1WithRSAEncryption
         12:df:eb:ab:37:aa:38:1c:11:bb:37:3b:7b:f7:06:5c:99:80:
         2e:a6:a8:46:a3:dd:8c:7b:51:96:cf:ec:49:10:06:0f:c2:98:
         4a:48:f8:44:7e:6c:eb:48:41:10:62:6d:e3:c5:64:13:fb:8c:
         f2:a8:7d:5e:d9:0d:b5:56:0f:3f:44:e3:3c:c4:4a:cf:41:20:
         e5:27:86:6a:f6:b6:74:6b:38:b9:49:7d:f9:98:f9:1c:70:35:
         d2:f6:0c:2f:f1:db:5b:3b:88:67:5b:55:9f:f4:29:35:73:07:
         e3:53:7d:eb:c8:b3:be:29:fa:35:80:ca:13:1c:a6:73:0c:8e:
         85:20:3e:64:a2:79:62:a8:d8:43:d2:b4:cf:6b:22:e5:20:d8:
         d1:82:08:4b:9e:80:8c:48:31:69:13:3b:4b:61:17:a9:e4:15:
         79:9f:ca:59:f5:0b:bf:fa:36:26:44:d4:44:20:6b:a7:b1:1f:
         48:1d:58:ca:eb:18:c9:c4:92:9c:42:ce:b1:ab:64:46:4c:b9:
         30:6e:f6:9a:6f:02:56:42:07:c7:b7:e8:c0:59:70:dc:97:58:
         79:bc:0d:f8:e2:37:67:5e:52:2f:7f:98:10:6d:ca:e5:dc:f1:
         c4:1f:ad:8e:30:dc:f2:a9:ee:4c:b5:23:51:a8:9c:61:69:7f:
         30:3d:e4:76
-----BEGIN CERTIFICATE-----
MIIDxjCCAq6gAwIBAgIBATANBgkqhkiG9w0BAQUFADB0MRMwEQYKCZImiZPyLGQB
GRYDb3JnMRYwFAYKCZImiZPyLGQBGRYGc2ltcGxlMRMwEQYDVQQKDApTaW1wbGUg
SW5jMRcwFQYDVQQLDA5TaW1wbGUgUm9vdCBDQTEXMBUGA1UEAwwOU2ltcGxlIFJv
b3QgQ0EwHhcNMjMxMTI3MjMxOTIyWhcNMzMxMTI2MjMxOTIyWjB0MRMwEQYKCZIm
iZPyLGQBGRYDb3JnMRYwFAYKCZImiZPyLGQBGRYGc2ltcGxlMRMwEQYDVQQKDApT
aW1wbGUgSW5jMRcwFQYDVQQLDA5TaW1wbGUgUm9vdCBDQTEXMBUGA1UEAwwOU2lt
cGxlIFJvb3QgQ0EwggEiMA0GCSqGSIb3DQEBAQUAA4IBDwAwggEKAoIBAQC2enCU
TlpvCEtMJiF/g7ZPU/nsPEl06xkSl1hJK2gIf6v1kVyu0OS344HJyYdtgyXcsSG1
qeK8mixwCKedEajgKji0T1TezZb5v4KTOHolgZNJlJ/mutWZEDeBftIUAb59Srcl
bEZzLfwjI+7pu5/pDEZl0PX279jn0PsFL18sBsKrtMZILb0yzi9Aih5Jb/vzzLEZ
Ni1X39WBZSM+YoPvGxpq+To14M8ZPbpeY8i7mwfiOPGaEbJkZvL5EUHmwkVy1i4h
TnxebyFbQ0HLW7XHPk/x4BBrkUaqVYI1bk2wKrYsTjlwRHXnikQOwmdEjxrXeAY+
U3UYPhZ4eIGT2NKbAgMBAAGjYzBhMA4GA1UdDwEB/wQEAwIBBjAPBgNVHRMBAf8E
BTADAQH/MB0GA1UdDgQWBBTjmbOqRRNmLNZ4+VYpLvTs4VOCPTAfBgNVHSMEGDAW
gBTjmbOqRRNmLNZ4+VYpLvTs4VOCPTANBgkqhkiG9w0BAQUFAAOCAQEAEt/rqzeq
OBwRuzc7e/cGXJmALqaoRqPdjHtRls/sSRAGD8KYSkj4RH5s60hBEGJt48VkE/uM
8qh9XtkNtVYPP0TjPMRKz0Eg5SeGava2dGs4uUl9+Zj5HHA10vYML/HbWzuIZ1tV
n/QpNXMH41N968izvin6NYDKExymcwyOhSA+ZKJ5YqjYQ9K0z2si5SDY0YIIS56A
jEgxaRM7S2EXqeQVeZ/KWfULv/o2JkTURCBrp7EfSB1YyusYycSSnELOsatkRky5
MG72mm8CVkIHx7fowFlw3JdYebwN+OI3Z15SL3+YEG3K5dzxxB+tjjDc8qnuTLUj
UaicYWl/MD3kdg==
-----END CERTIFICATE-----
